target datalayout = "e-m:e-p270:32:32-p271:32:32-p272:64:64-i64:64-i128:128-f80:128-n8:16:32:64-S128"
target triple = "x86_64-pc-linux-gnu"

%struct.TupleTableSlotOps = type { i64, ptr, ptr, ptr, ptr, ptr, ptr, ptr, ptr, ptr, ptr, ptr, ptr }
%struct.TupleDescData = type { i32, i32, i32, i32, ptr, [0 x %struct.CompactAttribute] }
%struct.CompactAttribute = type { i32, i16, i8, i8, i8, i8, i8, i8, i8 }
%struct.List = type { i32, i32, i32, ptr, [0 x %union.ListCell] }
%union.ListCell = type { ptr }
%struct.TargetEntry = type { %struct.Expr, ptr, i16, ptr, i32, i32, i16, i8 }
%struct.Expr = type { i32 }
%struct.JunkFilter = type { i32, ptr, ptr, ptr, ptr }
%struct.Node = type { i32 }

@TTSOpsVirtual = external constant %struct.TupleTableSlotOps, align 8

; Function Attrs: inlinehint nounwind uwtable
define internal ptr @newNode(i64 noundef %0, i32 noundef %1) #4 {
  %3 = alloca i64, align 8
  %4 = alloca i32, align 4
  %5 = alloca ptr, align 8
  store i64 %0, ptr %3, align 8
  store i32 %1, ptr %4, align 4
  call void @llvm.lifetime.start.p0(i64 8, ptr %5) #6
  %6 = load i64, ptr %3, align 8
  %7 = call ptr @palloc0(i64 noundef %6)
  store ptr %7, ptr %5, align 8
  %8 = load i32, ptr %4, align 4
  %9 = load ptr, ptr %5, align 8
  %10 = getelementptr inbounds nuw %struct.Node, ptr %9, i32 0, i32 0
  store i32 %8, ptr %10, align 4
  %11 = load ptr, ptr %5, align 8
  call void @llvm.lifetime.end.p0(i64 8, ptr %5) #6
  ret ptr %11
}

; Function Attrs: inlinehint nounwind uwtable
define internal ptr @lnext(ptr noundef %0, ptr noundef %1) #4 {
  %3 = alloca ptr, align 8
  %4 = alloca ptr, align 8
  %5 = alloca ptr, align 8
  store ptr %0, ptr %4, align 8
  store ptr %1, ptr %5, align 8
  %6 = load ptr, ptr %5, align 8
  %7 = getelementptr inbounds nuw %union.ListCell, ptr %6, i32 1
  store ptr %7, ptr %5, align 8
  %8 = load ptr, ptr %5, align 8
  %9 = load ptr, ptr %4, align 8
  %10 = getelementptr inbounds nuw %struct.List, ptr %9, i32 0, i32 3
  %11 = load ptr, ptr %10, align 8
  %12 = load ptr, ptr %4, align 8
  %13 = getelementptr inbounds nuw %struct.List, ptr %12, i32 0, i32 1
  %14 = load i32, ptr %13, align 4
  %15 = sext i32 %14 to i64
  %16 = getelementptr inbounds %union.ListCell, ptr %11, i64 %15
  %17 = icmp ult ptr %8, %16
  br i1 %17, label %18, label %20

18:                                               ; preds = %2
  %19 = load ptr, ptr %5, align 8
  store ptr %19, ptr %3, align 8
  br label %21

20:                                               ; preds = %2
  store ptr null, ptr %3, align 8
  br label %21

21:                                               ; preds = %20, %18
  %22 = load ptr, ptr %3, align 8
  ret ptr %22
}

; Function Attrs: inlinehint nounwind uwtable
define internal ptr @TupleDescCompactAttr(ptr noundef %0, i32 noundef %1) #4 {
  %3 = alloca ptr, align 8
  %4 = alloca i32, align 4
  %5 = alloca ptr, align 8
  store ptr %0, ptr %3, align 8
  store i32 %1, ptr %4, align 4
  call void @llvm.lifetime.start.p0(i64 8, ptr %5) #6
  %6 = load ptr, ptr %3, align 8
  %7 = getelementptr inbounds nuw %struct.TupleDescData, ptr %6, i32 0, i32 5
  %8 = load i32, ptr %4, align 4
  %9 = sext i32 %8 to i64
  %10 = getelementptr inbounds [0 x %struct.CompactAttribute], ptr %7, i64 0, i64 %9
  store ptr %10, ptr %5, align 8
  %11 = load ptr, ptr %5, align 8
  call void @llvm.lifetime.end.p0(i64 8, ptr %5) #6
  ret ptr %11
}

; Function Attrs: inlinehint nounwind uwtable
define internal ptr @list_head(ptr noundef %0) #4 {
  %2 = alloca ptr, align 8
  store ptr %0, ptr %2, align 8
  %3 = load ptr, ptr %2, align 8
  %4 = icmp ne ptr %3, null
  br i1 %4, label %5, label %10

5:                                                ; preds = %1
  %6 = load ptr, ptr %2, align 8
  %7 = getelementptr inbounds nuw %struct.List, ptr %6, i32 0, i32 3
  %8 = load ptr, ptr %7, align 8
  %9 = getelementptr inbounds %union.ListCell, ptr %8, i64 0
  br label %11

10:                                               ; preds = %1
  br label %11

11:                                               ; preds = %10, %5
  %12 = phi ptr [ %9, %5 ], [ null, %10 ]
  ret ptr %12
}

; Function Attrs: nounwind uwtable
define dso_local ptr @ExecInitJunkFilterConversion(ptr noundef %0, ptr noundef %1, ptr noundef %2) #0 {
  %4 = alloca ptr, align 8
  %5 = alloca ptr, align 8
  %6 = alloca ptr, align 8
  %7 = alloca ptr, align 8
  %8 = alloca i32, align 4
  %9 = alloca ptr, align 8
  %10 = alloca ptr, align 8
  %11 = alloca i32, align 4
  %12 = alloca ptr, align 8
  %13 = alloca i32, align 4
  store ptr %0, ptr %4, align 8
  store ptr %1, ptr %5, align 8
  store ptr %2, ptr %6, align 8
  call void @llvm.lifetime.start.p0(i64 8, ptr %7) #6
  call void @llvm.lifetime.start.p0(i64 4, ptr %8) #6
  call void @llvm.lifetime.start.p0(i64 8, ptr %9) #6
  call void @llvm.lifetime.start.p0(i64 8, ptr %10) #6
  call void @llvm.lifetime.start.p0(i64 4, ptr %11) #6
  %14 = load ptr, ptr %6, align 8
  %15 = icmp ne ptr %14, null
  br i1 %15, label %16, label %19

16:                                               ; preds = %3
  %17 = load ptr, ptr %6, align 8
  %18 = load ptr, ptr %5, align 8
  call void @ExecSetSlotDescriptor(ptr noundef %17, ptr noundef %18)
  br label %22

19:                                               ; preds = %3
  %20 = load ptr, ptr %5, align 8
  %21 = call ptr @MakeSingleTupleTableSlot(ptr noundef %20, ptr noundef @TTSOpsVirtual)
  store ptr %21, ptr %6, align 8
  br label %22

22:                                               ; preds = %19, %16
  %23 = load ptr, ptr %5, align 8
  %24 = getelementptr inbounds nuw %struct.TupleDescData, ptr %23, i32 0, i32 0
  %25 = load i32, ptr %24, align 8
  store i32 %25, ptr %8, align 4
  %26 = load i32, ptr %8, align 4
  %27 = icmp sgt i32 %26, 0
  br i1 %27, label %28, label %75

28:                                               ; preds = %22
  %29 = load i32, ptr %8, align 4
  %30 = sext i32 %29 to i64
  %31 = mul i64 %30, 2
  %32 = call ptr @palloc0(i64 noundef %31)
  store ptr %32, ptr %9, align 8
  %33 = load ptr, ptr %4, align 8
  %34 = call ptr @list_head(ptr noundef %33)
  store ptr %34, ptr %10, align 8
  store i32 0, ptr %11, align 4
  br label %35

35:                                               ; preds = %71, %28
  %36 = load i32, ptr %11, align 4
  %37 = load i32, ptr %8, align 4
  %38 = icmp slt i32 %36, %37
  br i1 %38, label %39, label %74

39:                                               ; preds = %35
  %40 = load ptr, ptr %5, align 8
  %41 = load i32, ptr %11, align 4
  %42 = call ptr @TupleDescCompactAttr(ptr noundef %40, i32 noundef %41)
  %43 = getelementptr inbounds nuw %struct.CompactAttribute, ptr %42, i32 0, i32 5
  %44 = load i8, ptr %43, align 1, !range !4, !noundef !5
  %45 = trunc i8 %44 to i1
  br i1 %45, label %46, label %47

46:                                               ; preds = %39
  br label %71

47:                                               ; preds = %39
  br label %48

48:                                               ; preds = %69, %47
  call void @llvm.lifetime.start.p0(i64 8, ptr %12) #6
  %49 = load ptr, ptr %10, align 8
  %50 = load ptr, ptr %49, align 8
  store ptr %50, ptr %12, align 8
  %51 = load ptr, ptr %4, align 8
  %52 = load ptr, ptr %10, align 8
  %53 = call ptr @lnext(ptr noundef %51, ptr noundef %52)
  store ptr %53, ptr %10, align 8
  %54 = load ptr, ptr %12, align 8
  %55 = getelementptr inbounds nuw %struct.TargetEntry, ptr %54, i32 0, i32 7
  %56 = load i8, ptr %55, align 2, !range !4, !noundef !5
  %57 = trunc i8 %56 to i1
  br i1 %57, label %66, label %58

58:                                               ; preds = %48
  %59 = load ptr, ptr %12, align 8
  %60 = getelementptr inbounds nuw %struct.TargetEntry, ptr %59, i32 0, i32 2
  %61 = load i16, ptr %60, align 8
  %62 = load ptr, ptr %9, align 8
  %63 = load i32, ptr %11, align 4
  %64 = sext i32 %63 to i64
  %65 = getelementptr inbounds i16, ptr %62, i64 %64
  store i16 %61, ptr %65, align 2
  store i32 5, ptr %13, align 4
  br label %67

66:                                               ; preds = %48
  store i32 0, ptr %13, align 4
  br label %67

67:                                               ; preds = %66, %58
  call void @llvm.lifetime.end.p0(i64 8, ptr %12) #6
  %68 = load i32, ptr %13, align 4
  switch i32 %68, label %91 [
    i32 0, label %69
    i32 5, label %70
  ]

69:                                               ; preds = %67
  br label %48

70:                                               ; preds = %67
  br label %71

71:                                               ; preds = %70, %46
  %72 = load i32, ptr %11, align 4
  %73 = add i32 %72, 1
  store i32 %73, ptr %11, align 4
  br label %35, !llvm.loop !8

74:                                               ; preds = %35
  br label %76

75:                                               ; preds = %22
  store ptr null, ptr %9, align 8
  br label %76

76:                                               ; preds = %75, %74
  %77 = call ptr @newNode(i64 noundef 40, i32 noundef 384)
  store ptr %77, ptr %7, align 8
  %78 = load ptr, ptr %4, align 8
  %79 = load ptr, ptr %7, align 8
  %80 = getelementptr inbounds nuw %struct.JunkFilter, ptr %79, i32 0, i32 1
  store ptr %78, ptr %80, align 8
  %81 = load ptr, ptr %5, align 8
  %82 = load ptr, ptr %7, align 8
  %83 = getelementptr inbounds nuw %struct.JunkFilter, ptr %82, i32 0, i32 2
  store ptr %81, ptr %83, align 8
  %84 = load ptr, ptr %9, align 8
  %85 = load ptr, ptr %7, align 8
  %86 = getelementptr inbounds nuw %struct.JunkFilter, ptr %85, i32 0, i32 3
  store ptr %84, ptr %86, align 8
  %87 = load ptr, ptr %6, align 8
  %88 = load ptr, ptr %7, align 8
  %89 = getelementptr inbounds nuw %struct.JunkFilter, ptr %88, i32 0, i32 4
  store ptr %87, ptr %89, align 8
  %90 = load ptr, ptr %7, align 8
  store i32 1, ptr %13, align 4
  call void @llvm.lifetime.end.p0(i64 4, ptr %11) #6
  call void @llvm.lifetime.end.p0(i64 8, ptr %10) #6
  call void @llvm.lifetime.end.p0(i64 8, ptr %9) #6
  call void @llvm.lifetime.end.p0(i64 4, ptr %8) #6
  call void @llvm.lifetime.end.p0(i64 8, ptr %7) #6
  ret ptr %90

91:                                               ; preds = %67
  unreachable
}