; Function Attrs: nounwind uwtable
define dso_local noundef ptr @ExecInitJunkFilterConversion(ptr noundef %0, ptr noundef %1, ptr noundef %2) local_unnamed_addr #0 {
  %.not = icmp eq ptr %2, null
  br i1 %.not, label %5, label %4

4:                                                ; preds = %3
  tail call void @ExecSetSlotDescriptor(ptr noundef nonnull %2, ptr noundef %1) #4
  br label %7

5:                                                ; preds = %3
  %6 = tail call ptr @MakeSingleTupleTableSlot(ptr noundef %1, ptr noundef nonnull @TTSOpsVirtual) #4
  br label %7

7:                                                ; preds = %5, %4
  %.029 = phi ptr [ %2, %4 ], [ %6, %5 ]
  %8 = load i32, ptr %1, align 8
  %9 = icmp sgt i32 %8, 0
  br i1 %9, label %10, label %.loopexit

10:                                               ; preds = %7
  %11 = shl nuw i32 %8, 1
  %12 = zext i32 %11 to i64
  %13 = tail call ptr @palloc0(i64 noundef %12) #4
  %.not.i = icmp eq ptr %0, null
  br i1 %.not.i, label %.lr.ph, label %14

14:                                               ; preds = %10
  %15 = getelementptr inbounds nuw i8, ptr %0, i64 16
  %16 = load ptr, ptr %15, align 8
  br label %.lr.ph

.lr.ph:                                           ; preds = %14, %10
  %17 = phi ptr [ %16, %14 ], [ null, %10 ]
  %18 = getelementptr i8, ptr %1, i64 33
  %19 = getelementptr i8, ptr %0, i64 4
  %20 = getelementptr i8, ptr %0, i64 16
  %wide.trip.count = zext nneg i32 %8 to i64
  br label %21

21:                                               ; preds = %.lr.ph, %37
  %indvars.iv = phi i64 [ 0, %.lr.ph ], [ %indvars.iv.next, %37 ]
  %.03138 = phi ptr [ %17, %.lr.ph ], [ %.1, %37 ]
  %.idx = shl nuw nsw i64 %indvars.iv, 4
  %22 = getelementptr i8, ptr %18, i64 %.idx
  %23 = load i8, ptr %22, align 1, !range !4, !noundef !5
  %24 = trunc nuw i8 %23 to i1
  br i1 %24, label %37, label %.preheader

.preheader:                                       ; preds = %21
  %.val = load i32, ptr %19, align 4
  %.val35 = load ptr, ptr %20, align 8
  %25 = sext i32 %.val to i64
  %26 = getelementptr inbounds %union.ListCell, ptr %.val35, i64 %25
  br label %27

27:                                               ; preds = %.preheader, %27
  %.2 = phi ptr [ %..i, %27 ], [ %.03138, %.preheader ]
  %28 = load ptr, ptr %.2, align 8
  %29 = getelementptr inbounds nuw i8, ptr %.2, i64 8
  %30 = icmp ult ptr %29, %26
  %..i = select i1 %30, ptr %29, ptr null
  %31 = getelementptr inbounds nuw i8, ptr %28, i64 42
  %32 = load i8, ptr %31, align 2, !range !4, !noundef !5
  %33 = trunc nuw i8 %32 to i1
  br i1 %33, label %27, label %.thread

.thread:                                          ; preds = %27
  %34 = getelementptr inbounds nuw i8, ptr %28, i64 16
  %35 = load i16, ptr %34, align 8
  %36 = getelementptr inbounds nuw i16, ptr %13, i64 %indvars.iv
  store i16 %35, ptr %36, align 2
  br label %37

37:                                               ; preds = %.thread, %21
  %.1 = phi ptr [ %.03138, %21 ], [ %..i, %.thread ]
  %indvars.iv.next = add nuw nsw i64 %indvars.iv, 1
  %exitcond.not = icmp eq i64 %indvars.iv.next, %wide.trip.count
  br i1 %exitcond.not, label %.loopexit, label %21, !llvm.loop !6

.loopexit:                                        ; preds = %37, %7
  %.032 = phi ptr [ null, %7 ], [ %13, %37 ]
  %38 = tail call noundef ptr @palloc0(i64 noundef 40) #4
  store i32 384, ptr %38, align 4
  %39 = getelementptr inbounds nuw i8, ptr %38, i64 8
  store ptr %0, ptr %39, align 8
  %40 = getelementptr inbounds nuw i8, ptr %38, i64 16
  store ptr %1, ptr %40, align 8
  %41 = getelementptr inbounds nuw i8, ptr %38, i64 24
  store ptr %.032, ptr %41, align 8
  %42 = getelementptr inbounds nuw i8, ptr %38, i64 32
  store ptr %.029, ptr %42, align 8
  ret ptr %38
}